target datalayout = "e-m:e-p270:32:32-p271:32:32-p272:64:64-i64:64-i128:128-f80:128-n8:16:32:64-S128"
target triple = "x86_64-pc-linux-gnu"

%"class.google::protobuf::RepeatedField" = type { i32, i32, ptr }
%"class.google::protobuf::RepeatedField.6" = type { i32, i32, ptr }
%"class.google::protobuf::RepeatedField.7" = type { i32, i32, ptr }
%"class.google::protobuf::RepeatedField.8" = type { i32, i32, ptr }
%"class.google::protobuf::RepeatedField.9" = type { i32, i32, ptr }
%"class.google::protobuf::RepeatedField.10" = type { i32, i32, ptr }
%"class.google::protobuf::RepeatedField.11" = type { i32, i32, ptr }
%class.anon.85 = type { i8 }
%"class.google::protobuf::internal::RepeatedPrimitiveDefaults" = type { %"class.google::protobuf::RepeatedField", %"class.google::protobuf::RepeatedField.6", %"class.google::protobuf::RepeatedField.7", %"class.google::protobuf::RepeatedField.8", %"class.google::protobuf::RepeatedField.10", %"class.google::protobuf::RepeatedField.9", %"class.google::protobuf::RepeatedField.11" }

@_ZZN6google8protobuf8internal25RepeatedPrimitiveDefaults16default_instanceEvE8instance = internal global ptr null, align 8
@_ZGVZN6google8protobuf8internal25RepeatedPrimitiveDefaults16default_instanceEvE8instance = internal global i64 0, align 8

; Function Attrs: inlinehint mustprogress nounwind uwtable
define linkonce_odr hidden noundef ptr @_ZZN6google8protobuf8internal16OnShutdownDeleteINS1_25RepeatedPrimitiveDefaultsEEEPT_S5_ENKUlPKvE_cvPFvS7_EEv(ptr noundef nonnull align 1 dereferenceable(1) %0) #14 comdat align 2 {
  %2 = alloca ptr, align 8
  store ptr %0, ptr %2, align 8, !tbaa !39
  ret ptr @_ZZN6google8protobuf8internal16OnShutdownDeleteINS1_25RepeatedPrimitiveDefaultsEEEPT_S5_ENUlPKvE_8__invokeES7_
}

; Function Attrs: mustprogress nounwind uwtable
define available_externally void @_ZN6google8protobuf13RepeatedFieldIbEC2Ev(ptr noundef nonnull align 8 dereferenceable(16) %0) unnamed_addr #4 align 2 {
  %2 = alloca ptr, align 8
  store ptr %0, ptr %2, align 8, !tbaa !254
  %3 = load ptr, ptr %2, align 8
  %4 = getelementptr inbounds nuw %"class.google::protobuf::RepeatedField.11", ptr %3, i32 0, i32 0
  store i32 0, ptr %4, align 8, !tbaa !257
  %5 = getelementptr inbounds nuw %"class.google::protobuf::RepeatedField.11", ptr %3, i32 0, i32 1
  store i32 0, ptr %5, align 4, !tbaa !270
  %6 = getelementptr inbounds nuw %"class.google::protobuf::RepeatedField.11", ptr %3, i32 0, i32 2
  store ptr null, ptr %6, align 8, !tbaa !677
  ret void
}

; Function Attrs: mustprogress nounwind uwtable
define available_externally void @_ZN6google8protobuf13RepeatedFieldIfEC2Ev(ptr noundef nonnull align 8 dereferenceable(16) %0) unnamed_addr #4 align 2 {
  %2 = alloca ptr, align 8
  store ptr %0, ptr %2, align 8, !tbaa !196
  %3 = load ptr, ptr %2, align 8
  %4 = getelementptr inbounds nuw %"class.google::protobuf::RepeatedField.9", ptr %3, i32 0, i32 0
  store i32 0, ptr %4, align 8, !tbaa !199
  %5 = getelementptr inbounds nuw %"class.google::protobuf::RepeatedField.9", ptr %3, i32 0, i32 1
  store i32 0, ptr %5, align 4, !tbaa !212
  %6 = getelementptr inbounds nuw %"class.google::protobuf::RepeatedField.9", ptr %3, i32 0, i32 2
  store ptr null, ptr %6, align 8, !tbaa !676
  ret void
}

; Function Attrs: mustprogress nounwind uwtable
define available_externally void @_ZN6google8protobuf13RepeatedFieldIdEC2Ev(ptr noundef nonnull align 8 dereferenceable(16) %0) unnamed_addr #4 align 2 {
  %2 = alloca ptr, align 8
  store ptr %0, ptr %2, align 8, !tbaa !226
  %3 = load ptr, ptr %2, align 8
  %4 = getelementptr inbounds nuw %"class.google::protobuf::RepeatedField.10", ptr %3, i32 0, i32 0
  store i32 0, ptr %4, align 8, !tbaa !229
  %5 = getelementptr inbounds nuw %"class.google::protobuf::RepeatedField.10", ptr %3, i32 0, i32 1
  store i32 0, ptr %5, align 4, !tbaa !242
  %6 = getelementptr inbounds nuw %"class.google::protobuf::RepeatedField.10", ptr %3, i32 0, i32 2
  store ptr null, ptr %6, align 8, !tbaa !675
  ret void
}

; Function Attrs: mustprogress nounwind uwtable
define available_externally void @_ZN6google8protobuf13RepeatedFieldImEC2Ev(ptr noundef nonnull align 8 dereferenceable(16) %0) unnamed_addr #4 align 2 {
  %2 = alloca ptr, align 8
  store ptr %0, ptr %2, align 8, !tbaa !166
  %3 = load ptr, ptr %2, align 8
  %4 = getelementptr inbounds nuw %"class.google::protobuf::RepeatedField.8", ptr %3, i32 0, i32 0
  store i32 0, ptr %4, align 8, !tbaa !169
  %5 = getelementptr inbounds nuw %"class.google::protobuf::RepeatedField.8", ptr %3, i32 0, i32 1
  store i32 0, ptr %5, align 4, !tbaa !182
  %6 = getelementptr inbounds nuw %"class.google::protobuf::RepeatedField.8", ptr %3, i32 0, i32 2
  store ptr null, ptr %6, align 8, !tbaa !674
  ret void
}

; Function Attrs: mustprogress nounwind uwtable
define available_externally void @_ZN6google8protobuf13RepeatedFieldIjEC2Ev(ptr noundef nonnull align 8 dereferenceable(16) %0) unnamed_addr #4 align 2 {
  %2 = alloca ptr, align 8
  store ptr %0, ptr %2, align 8, !tbaa !140
  %3 = load ptr, ptr %2, align 8
  %4 = getelementptr inbounds nuw %"class.google::protobuf::RepeatedField.7", ptr %3, i32 0, i32 0
  store i32 0, ptr %4, align 8, !tbaa !143
  %5 = getelementptr inbounds nuw %"class.google::protobuf::RepeatedField.7", ptr %3, i32 0, i32 1
  store i32 0, ptr %5, align 4, !tbaa !156
  %6 = getelementptr inbounds nuw %"class.google::protobuf::RepeatedField.7", ptr %3, i32 0, i32 2
  store ptr null, ptr %6, align 8, !tbaa !673
  ret void
}

; Function Attrs: mustprogress nounwind uwtable
define available_externally void @_ZN6google8protobuf13RepeatedFieldIlEC2Ev(ptr noundef nonnull align 8 dereferenceable(16) %0) unnamed_addr #4 align 2 {
  %2 = alloca ptr, align 8
  store ptr %0, ptr %2, align 8, !tbaa !114
  %3 = load ptr, ptr %2, align 8
  %4 = getelementptr inbounds nuw %"class.google::protobuf::RepeatedField.6", ptr %3, i32 0, i32 0
  store i32 0, ptr %4, align 8, !tbaa !117
  %5 = getelementptr inbounds nuw %"class.google::protobuf::RepeatedField.6", ptr %3, i32 0, i32 1
  store i32 0, ptr %5, align 4, !tbaa !130
  %6 = getelementptr inbounds nuw %"class.google::protobuf::RepeatedField.6", ptr %3, i32 0, i32 2
  store ptr null, ptr %6, align 8, !tbaa !672
  ret void
}

; Function Attrs: mustprogress nounwind uwtable
define available_externally void @_ZN6google8protobuf13RepeatedFieldIiEC2Ev(ptr noundef nonnull align 8 dereferenceable(16) %0) unnamed_addr #4 align 2 {
  %2 = alloca ptr, align 8
  store ptr %0, ptr %2, align 8, !tbaa !85
  %3 = load ptr, ptr %2, align 8
  %4 = getelementptr inbounds nuw %"class.google::protobuf::RepeatedField", ptr %3, i32 0, i32 0
  store i32 0, ptr %4, align 8, !tbaa !88
  %5 = getelementptr inbounds nuw %"class.google::protobuf::RepeatedField", ptr %3, i32 0, i32 1
  store i32 0, ptr %5, align 4, !tbaa !102
  %6 = getelementptr inbounds nuw %"class.google::protobuf::RepeatedField", ptr %3, i32 0, i32 2
  store ptr null, ptr %6, align 8, !tbaa !671
  ret void
}

; Function Attrs: mustprogress uwtable
define linkonce_odr hidden noundef ptr @_ZN6google8protobuf8internal16OnShutdownDeleteINS1_25RepeatedPrimitiveDefaultsEEEPT_S5_(ptr noundef %0) #6 comdat {
  %2 = alloca ptr, align 8
  %3 = alloca %class.anon.85, align 1
  store ptr %0, ptr %2, align 8, !tbaa !531
  call void @llvm.lifetime.start.p0(i64 1, ptr %3) #3
  %4 = call noundef ptr @_ZZN6google8protobuf8internal16OnShutdownDeleteINS1_25RepeatedPrimitiveDefaultsEEEPT_S5_ENKUlPKvE_cvPFvS7_EEv(ptr noundef nonnull align 1 dereferenceable(1) %3) #3
  %5 = load ptr, ptr %2, align 8, !tbaa !531
  call void @_ZN6google8protobuf8internal13OnShutdownRunEPFvPKvES3_(ptr noundef %4, ptr noundef %5)
  call void @llvm.lifetime.end.p0(i64 1, ptr %3) #3
  %6 = load ptr, ptr %2, align 8, !tbaa !531
  ret ptr %6
}

; Function Attrs: inlinehint mustprogress uwtable
define linkonce_odr hidden void @_ZN6google8protobuf8internal25RepeatedPrimitiveDefaultsC2Ev(ptr noundef nonnull align 8 dereferenceable(112) %0) unnamed_addr #13 comdat align 2 personality ptr @__gxx_personality_v0 {
  %2 = alloca ptr, align 8
  %3 = alloca ptr, align 8
  %4 = alloca i32, align 4
  store ptr %0, ptr %2, align 8, !tbaa !531
  %5 = load ptr, ptr %2, align 8
  %6 = getelementptr inbounds nuw %"class.google::protobuf::internal::RepeatedPrimitiveDefaults", ptr %5, i32 0, i32 0
  call void @_ZN6google8protobuf13RepeatedFieldIiEC2Ev(ptr noundef nonnull align 8 dereferenceable(16) %6)
  %7 = getelementptr inbounds nuw %"class.google::protobuf::internal::RepeatedPrimitiveDefaults", ptr %5, i32 0, i32 1
  invoke void @_ZN6google8protobuf13RepeatedFieldIlEC2Ev(ptr noundef nonnull align 8 dereferenceable(16) %7)
          to label %8 unwind label %19

8:                                                ; preds = %1
  %9 = getelementptr inbounds nuw %"class.google::protobuf::internal::RepeatedPrimitiveDefaults", ptr %5, i32 0, i32 2
  invoke void @_ZN6google8protobuf13RepeatedFieldIjEC2Ev(ptr noundef nonnull align 8 dereferenceable(16) %9)
          to label %10 unwind label %23

10:                                               ; preds = %8
  %11 = getelementptr inbounds nuw %"class.google::protobuf::internal::RepeatedPrimitiveDefaults", ptr %5, i32 0, i32 3
  invoke void @_ZN6google8protobuf13RepeatedFieldImEC2Ev(ptr noundef nonnull align 8 dereferenceable(16) %11)
          to label %12 unwind label %27

12:                                               ; preds = %10
  %13 = getelementptr inbounds nuw %"class.google::protobuf::internal::RepeatedPrimitiveDefaults", ptr %5, i32 0, i32 4
  invoke void @_ZN6google8protobuf13RepeatedFieldIdEC2Ev(ptr noundef nonnull align 8 dereferenceable(16) %13)
          to label %14 unwind label %31

14:                                               ; preds = %12
  %15 = getelementptr inbounds nuw %"class.google::protobuf::internal::RepeatedPrimitiveDefaults", ptr %5, i32 0, i32 5
  invoke void @_ZN6google8protobuf13RepeatedFieldIfEC2Ev(ptr noundef nonnull align 8 dereferenceable(16) %15)
          to label %16 unwind label %35

16:                                               ; preds = %14
  %17 = getelementptr inbounds nuw %"class.google::protobuf::internal::RepeatedPrimitiveDefaults", ptr %5, i32 0, i32 6
  invoke void @_ZN6google8protobuf13RepeatedFieldIbEC2Ev(ptr noundef nonnull align 8 dereferenceable(16) %17)
          to label %18 unwind label %39

18:                                               ; preds = %16
  ret void

19:                                               ; preds = %1
  %20 = landingpad { ptr, i32 }
          cleanup
  %21 = extractvalue { ptr, i32 } %20, 0
  store ptr %21, ptr %3, align 8
  %22 = extractvalue { ptr, i32 } %20, 1
  store i32 %22, ptr %4, align 4
  br label %47

23:                                               ; preds = %8
  %24 = landingpad { ptr, i32 }
          cleanup
  %25 = extractvalue { ptr, i32 } %24, 0
  store ptr %25, ptr %3, align 8
  %26 = extractvalue { ptr, i32 } %24, 1
  store i32 %26, ptr %4, align 4
  br label %46

27:                                               ; preds = %10
  %28 = landingpad { ptr, i32 }
          cleanup
  %29 = extractvalue { ptr, i32 } %28, 0
  store ptr %29, ptr %3, align 8
  %30 = extractvalue { ptr, i32 } %28, 1
  store i32 %30, ptr %4, align 4
  br label %45

31:                                               ; preds = %12
  %32 = landingpad { ptr, i32 }
          cleanup
  %33 = extractvalue { ptr, i32 } %32, 0
  store ptr %33, ptr %3, align 8
  %34 = extractvalue { ptr, i32 } %32, 1
  store i32 %34, ptr %4, align 4
  br label %44

35:                                               ; preds = %14
  %36 = landingpad { ptr, i32 }
          cleanup
  %37 = extractvalue { ptr, i32 } %36, 0
  store ptr %37, ptr %3, align 8
  %38 = extractvalue { ptr, i32 } %36, 1
  store i32 %38, ptr %4, align 4
  br label %43

39:                                               ; preds = %16
  %40 = landingpad { ptr, i32 }
          cleanup
  %41 = extractvalue { ptr, i32 } %40, 0
  store ptr %41, ptr %3, align 8
  %42 = extractvalue { ptr, i32 } %40, 1
  store i32 %42, ptr %4, align 4
  call void @_ZN6google8protobuf13RepeatedFieldIfED1Ev(ptr noundef nonnull align 8 dereferenceable(16) %15) #3
  br label %43

43:                                               ; preds = %39, %35
  call void @_ZN6google8protobuf13RepeatedFieldIdED1Ev(ptr noundef nonnull align 8 dereferenceable(16) %13) #3
  br label %44

44:                                               ; preds = %43, %31
  call void @_ZN6google8protobuf13RepeatedFieldImED1Ev(ptr noundef nonnull align 8 dereferenceable(16) %11) #3
  br label %45

45:                                               ; preds = %44, %27
  call void @_ZN6google8protobuf13RepeatedFieldIjED1Ev(ptr noundef nonnull align 8 dereferenceable(16) %9) #3
  br label %46

46:                                               ; preds = %45, %23
  call void @_ZN6google8protobuf13RepeatedFieldIlED1Ev(ptr noundef nonnull align 8 dereferenceable(16) %7) #3
  br label %47

47:                                               ; preds = %46, %19
  call void @_ZN6google8protobuf13RepeatedFieldIiED1Ev(ptr noundef nonnull align 8 dereferenceable(16) %6) #3
  br label %48

48:                                               ; preds = %47
  %49 = load ptr, ptr %3, align 8
  %50 = load i32, ptr %4, align 4
  %51 = insertvalue { ptr, i32 } poison, ptr %49, 0
  %52 = insertvalue { ptr, i32 } %51, i32 %50, 1
  resume { ptr, i32 } %52
}

; Function Attrs: mustprogress uwtable
define hidden noundef ptr @_ZN6google8protobuf8internal25RepeatedPrimitiveDefaults16default_instanceEv() #6 align 2 personality ptr @__gxx_personality_v0 {
  %1 = alloca ptr, align 8
  %2 = alloca i32, align 4
  %3 = load atomic i8, ptr @_ZGVZN6google8protobuf8internal25RepeatedPrimitiveDefaults16default_instanceEvE8instance acquire, align 8
  %4 = icmp eq i8 %3, 0
  br i1 %4, label %5, label %14, !prof !36

5:                                                ; preds = %0
  %6 = call i32 @__cxa_guard_acquire(ptr @_ZGVZN6google8protobuf8internal25RepeatedPrimitiveDefaults16default_instanceEvE8instance) #3
  %7 = icmp ne i32 %6, 0
  br i1 %7, label %8, label %14

8:                                                ; preds = %5
  %9 = invoke noalias noundef nonnull ptr @_Znwm(i64 noundef 112) #24
          to label %10 unwind label %16

10:                                               ; preds = %8
  invoke void @_ZN6google8protobuf8internal25RepeatedPrimitiveDefaultsC2Ev(ptr noundef nonnull align 8 dereferenceable(112) %9)
          to label %11 unwind label %20

11:                                               ; preds = %10
  %12 = invoke noundef ptr @_ZN6google8protobuf8internal16OnShutdownDeleteINS1_25RepeatedPrimitiveDefaultsEEEPT_S5_(ptr noundef %9)
          to label %13 unwind label %16

13:                                               ; preds = %11
  store ptr %12, ptr @_ZZN6google8protobuf8internal25RepeatedPrimitiveDefaults16default_instanceEvE8instance, align 8, !tbaa !531
  call void @__cxa_guard_release(ptr @_ZGVZN6google8protobuf8internal25RepeatedPrimitiveDefaults16default_instanceEvE8instance) #3
  br label %14

14:                                               ; preds = %13, %5, %0
  %15 = load ptr, ptr @_ZZN6google8protobuf8internal25RepeatedPrimitiveDefaults16default_instanceEvE8instance, align 8, !tbaa !531
  ret ptr %15

16:                                               ; preds = %11, %8
  %17 = landingpad { ptr, i32 }
          cleanup
  %18 = extractvalue { ptr, i32 } %17, 0
  store ptr %18, ptr %1, align 8
  %19 = extractvalue { ptr, i32 } %17, 1
  store i32 %19, ptr %2, align 4
  br label %24

20:                                               ; preds = %10
  %21 = landingpad { ptr, i32 }
          cleanup
  %22 = extractvalue { ptr, i32 } %21, 0
  store ptr %22, ptr %1, align 8
  %23 = extractvalue { ptr, i32 } %21, 1
  store i32 %23, ptr %2, align 4
  call void @_ZdlPv(ptr noundef %9) #26
  br label %24

24:                                               ; preds = %20, %16
  call void @__cxa_guard_abort(ptr @_ZGVZN6google8protobuf8internal25RepeatedPrimitiveDefaults16default_instanceEvE8instance) #3
  br label %25

25:                                               ; preds = %24
  %26 = load ptr, ptr %1, align 8
  %27 = load i32, ptr %2, align 4
  %28 = insertvalue { ptr, i32 } poison, ptr %26, 0
  %29 = insertvalue { ptr, i32 } %28, i32 %27, 1
  resume { ptr, i32 } %29
}